; Function Attrs: mustprogress nofree norecurse nosync nounwind willreturn memory(argmem: write) uwtable
define void @_ZN6icu_756number4impl18ScientificModifierC2Ev(ptr nocapture noundef nonnull writeonly align 8 dereferenceable(24) %this) unnamed_addr #6 align 2 {
entry:
  store ptr getelementptr inbounds ({ [11 x ptr] }, ptr @_ZTVN6icu_756number4impl18ScientificModifierE, i64 0, i32 0, i64 2), ptr %this, align 8
  %fExponent = getelementptr inbounds i8, ptr %this, i64 8
  store i32 0, ptr %fExponent, align 8
  %fHandler = getelementptr inbounds i8, ptr %this, i64 16
  store ptr null, ptr %fHandler, align 8
  ret void
}